; Function Attrs: mustprogress nounwind uwtable
define hidden void @_ZN4cvc58internal6theory11quantifiers15EntailmentCheckD2Ev(ptr noundef nonnull align 8 captures(none) dereferenceable(48) initializes((0, 8)) %0) unnamed_addr #5 align 2 personality ptr @__gxx_personality_v0 {
  store ptr getelementptr inbounds nuw inrange(-16, 16) (i8, ptr @_ZTVN4cvc58internal6theory11quantifiers15EntailmentCheckE, i64 16), ptr %0, align 8, !tbaa !3
  %2 = getelementptr inbounds nuw i8, ptr %0, i64 40
  %3 = load ptr, ptr %2, align 8, !tbaa !15
  %4 = load i64, ptr %3, align 8
  %5 = and i64 %4, 1152920405095219200
  %.not.i.i = icmp eq i64 %5, 1152920405095219200
  br i1 %.not.i.i, label %_ZN4cvc58internal12NodeTemplateILb1EED2Ev.exit, label %6, !prof !19

6:                                                ; preds = %1
  %7 = add i64 %4, 1152920405095219200
  %8 = and i64 %7, 1152920405095219200
  %9 = and i64 %4, -1152920405095219201
  %10 = or disjoint i64 %8, %9
  store i64 %10, ptr %3, align 8
  %11 = icmp eq i64 %8, 0
  br i1 %11, label %12, label %_ZN4cvc58internal12NodeTemplateILb1EED2Ev.exit, !prof !19

12:                                               ; preds = %6
  invoke void @_ZN4cvc58internal4expr9NodeValue15markForDeletionEv(ptr noundef nonnull align 8 dereferenceable(24) %3)
          to label %_ZN4cvc58internal12NodeTemplateILb1EED2Ev.exit unwind label %13

13:                                               ; preds = %12
  %14 = landingpad { ptr, i32 }
          catch ptr null
  %15 = extractvalue { ptr, i32 } %14, 0
  tail call void @__clang_call_terminate(ptr %15) #22
  unreachable

_ZN4cvc58internal12NodeTemplateILb1EED2Ev.exit:   ; preds = %1, %6, %12
  %16 = getelementptr inbounds nuw i8, ptr %0, i64 32
  %17 = load ptr, ptr %16, align 8, !tbaa !15
  %18 = load i64, ptr %17, align 8
  %19 = and i64 %18, 1152920405095219200
  %.not.i.i1 = icmp eq i64 %19, 1152920405095219200
  br i1 %.not.i.i1, label %_ZN4cvc58internal12NodeTemplateILb1EED2Ev.exit2, label %20, !prof !19

20:                                               ; preds = %_ZN4cvc58internal12NodeTemplateILb1EED2Ev.exit
  %21 = add i64 %18, 1152920405095219200
  %22 = and i64 %21, 1152920405095219200
  %23 = and i64 %18, -1152920405095219201
  %24 = or disjoint i64 %22, %23
  store i64 %24, ptr %17, align 8
  %25 = icmp eq i64 %22, 0
  br i1 %25, label %26, label %_ZN4cvc58internal12NodeTemplateILb1EED2Ev.exit2, !prof !19

26:                                               ; preds = %20
  invoke void @_ZN4cvc58internal4expr9NodeValue15markForDeletionEv(ptr noundef nonnull align 8 dereferenceable(24) %17)
          to label %_ZN4cvc58internal12NodeTemplateILb1EED2Ev.exit2 unwind label %27

27:                                               ; preds = %26
  %28 = landingpad { ptr, i32 }
          catch ptr null
  %29 = extractvalue { ptr, i32 } %28, 0
  tail call void @__clang_call_terminate(ptr %29) #22
  unreachable

_ZN4cvc58internal12NodeTemplateILb1EED2Ev.exit2:  ; preds = %_ZN4cvc58internal12NodeTemplateILb1EED2Ev.exit, %20, %26
  ret void
}